Certificate:
    Data:
        Version: 3 (0x2)
        Serial Number:
            7c:b3:63:6e:8c:13:8c:6d:1e:7c:55:b4:1f:8f:95:4d:17:ae:e5:28
        Signature Algorithm: sha256WithRSAEncryption
        Issuer: C = IT, ST = Italy, L = Salerno, O = bunch-linux, OU = Bunch Linux, CN = Wael Karman, emailAddress = wael.karman@gmail.com
        Validity
            Not Before: Nov 23 13:37:05 2023 GMT
            Not After : Dec 23 13:37:05 2023 GMT
        Subject: C = IT, ST = Italy, L = Salerno, O = bunch-linux, OU = Bunch Linux, CN = Wael Karman, emailAddress = wael.karman@gmail.com
        Subject Public Key Info:
            Public Key Algorithm: rsaEncryption
                Public-Key: (4096 bit)
                Modulus:
                    00:94:25:d1:0e:bf:95:33:da:04:c5:5f:fc:a1:04:
                    a7:3e:3f:b5:34:a0:eb:3c:e1:e3:4b:74:66:96:35:
                    fc:b3:b9:42:54:84:66:16:a1:d8:fa:cc:b8:08:88:
                    03:1f:89:fc:f6:5c:98:8b:97:83:5c:5c:e4:0c:b4:
                    57:ea:01:66:2c:62:48:19:bb:b6:f0:0b:e1:d5:7b:
                    6b:91:b6:d8:b5:6f:53:c3:9c:ed:f5:9b:c1:18:7d:
                    79:c3:d5:7d:76:cb:e1:90:4a:43:0c:ba:fb:02:d4:
                    21:43:63:77:f8:17:05:96:de:1f:24:04:76:b6:0e:
                    63:64:53:d5:2e:2a:4e:bd:91:f3:f2:87:eb:74:92:
                    94:5d:bd:69:00:1a:82:8c:f5:1e:7f:dd:13:ae:3a:
                    42:86:e6:b8:97:07:2a:05:ec:49:bd:31:a2:97:a5:
                    bf:d9:38:94:24:92:99:3f:d1:a0:e5:8c:a3:a7:69:
                    e8:88:0f:ae:98:52:23:c7:2d:df:8c:ae:d4:12:20:
                    47:c0:2e:14:19:d6:eb:6f:c9:81:7e:83:e0:07:55:
                    0c:5d:0c:ae:af:a4:89:91:ee:db:61:63:de:6a:3b:
                    28:17:97:94:17:cf:68:f4:0a:6f:db:3d:60:0d:0b:
                    07:ae:93:31:01:8c:72:b7:5e:14:0b:0c:8d:71:d7:
                    3e:7d:76:00:61:73:0a:28:a3:f7:d5:e9:03:d7:d9:
                    4f:b7:12:5a:0a:4c:b2:99:e1:43:28:82:1b:d7:be:
                    e3:e2:a2:99:8e:f4:15:5d:55:44:7d:aa:c5:9b:e7:
                    27:4c:13:7a:c8:55:31:1a:7c:cb:7f:39:20:51:4c:
                    32:1b:d6:a2:54:16:66:94:93:57:ab:08:7d:20:96:
                    a5:e3:79:79:d5:34:b6:ab:eb:a6:03:5d:cf:f4:1b:
                    a9:95:48:65:91:37:59:7e:41:e1:8e:28:30:2b:9a:
                    0d:6c:bb:8b:a1:8e:14:7e:bb:69:0e:46:c0:6f:f4:
                    f1:0a:35:4c:f4:c1:af:57:d0:73:c1:2b:dc:2b:72:
                    66:41:0f:a1:b4:d2:0d:d2:a2:ff:a3:79:bd:04:25:
                    bc:1e:c0:64:de:69:c6:53:d2:aa:ec:b6:29:74:0c:
                    6a:03:10:99:c2:c3:fb:6f:ef:1b:91:e4:0b:db:24:
                    d9:ad:87:4d:3a:da:42:08:99:7b:96:5c:db:f0:d3:
                    21:a2:fd:03:59:26:55:6a:ba:10:6d:bc:52:d9:63:
                    b4:33:e8:b1:f2:3c:e1:57:65:0a:05:bb:b6:d7:4b:
                    28:d7:e4:82:eb:24:e1:b4:f7:a3:b2:66:c6:51:2e:
                    df:94:55:d6:30:5d:8d:29:a9:2f:17:39:29:52:06:
                    48:19:0d
                Exponent: 65537 (0x10001)
        X509v3 extensions:
            X509v3 Subject Key Identifier: 
                6E:60:CC:6A:79:97:21:B8:27:18:7C:8D:09:76:E1:F7:D6:A3:E2:71
            X509v3 Authority Key Identifier: 
                6E:60:CC:6A:79:97:21:B8:27:18:7C:8D:09:76:E1:F7:D6:A3:E2:71
            X509v3 Basic Constraints: critical
                CA:TRUE
    Signature Algorithm: sha256WithRSAEncryption
    Signature Value:
        07:bc:57:4b:99:30:06:fa:fd:1c:b9:cf:79:12:30:35:a2:c5:
        a1:9d:ca:1c:4b:64:0a:a6:50:ba:8f:da:90:f9:d9:2b:3d:c0:
        43:ac:1f:a6:37:92:45:2e:7b:64:cc:01:4f:e9:64:85:e2:99:
        5a:9e:d6:4d:c3:a1:12:bf:8e:1a:c7:9c:07:21:80:e3:db:4f:
        3f:11:48:53:ee:99:01:88:55:f3:87:11:a0:d4:c7:1e:d1:45:
        46:e6:22:9d:6f:5b:af:b3:1c:16:f5:e6:1e:57:05:98:03:3d:
        d7:de:e1:48:41:06:8a:38:1a:e5:92:01:c8:d8:85:88:e6:c9:
        9e:e7:93:76:cd:b6:c9:cd:8e:6f:36:31:7a:8c:72:74:0c:97:
        0c:b6:ea:b6:e6:57:65:f4:82:36:f9:2c:e2:ea:3d:26:09:87:
        06:d7:a0:a4:2e:3b:52:bd:7a:02:54:9e:9c:6a:7b:6e:74:67:
        64:39:62:f9:aa:aa:83:66:33:87:f8:99:2f:29:59:f0:d7:bb:
        d8:34:f8:da:41:91:02:8e:c6:ef:0c:f6:3b:4d:bd:68:69:96:
        c3:a3:0f:58:a9:91:69:bd:a2:60:5b:03:ef:8b:a0:78:b3:39:
        d6:41:45:1a:ff:68:a8:a9:f8:d4:8f:ad:c3:ad:7c:08:d5:a6:
        07:75:20:e1:a2:93:16:c5:58:b5:af:82:2f:a3:1a:eb:d9:b9:
        af:15:f3:bd:77:da:75:61:ef:a5:65:fa:5c:50:b2:63:f1:bb:
        7d:07:a7:8f:41:a7:d2:ff:b3:d8:db:22:a2:56:99:61:8f:4f:
        fc:0a:6d:90:b3:65:fa:ec:d4:12:2a:17:43:e2:3a:d7:16:d4:
        97:c0:0f:ca:3e:fc:f1:62:e7:a4:fb:3b:18:9f:79:58:76:9e:
        27:cd:5a:df:64:a9:b2:a8:32:f7:69:33:dd:bc:3e:c2:b8:13:
        35:7b:c4:03:12:30:45:7a:ef:6e:8b:92:46:21:b0:b3:41:69:
        a0:0d:aa:13:d0:c3:b6:5c:47:8b:32:73:ac:9e:03:cc:0d:05:
        5c:b2:be:04:cd:d4:bf:59:99:fd:2d:57:ad:65:6a:7e:07:00:
        04:d7:6b:81:97:a7:cd:fb:93:43:7d:11:b7:d0:2b:19:2c:e3:
        6f:99:0f:4b:27:b5:45:56:ba:b1:2d:18:21:51:5e:ed:c5:6b:
        b2:e9:1e:a4:35:17:ee:61:50:ea:46:39:53:ea:b9:0f:14:c6:
        e4:19:1d:23:03:7b:7c:c5:5d:3c:ec:5b:ae:d5:6f:a6:55:e4:
        85:43:42:3a:9a:8b:55:c5:41:33:e5:68:00:62:d5:ab:06:b2:
        71:fa:15:eb:ce:ed:55:5e
-----BEGIN CERTIFICATE-----
MIIGETCCA/mgAwIBAgIUfLNjbowTjG0efFW0H4+VTReu5SgwDQYJKoZIhvcNAQEL
BQAwgZcxCzAJBgNVBAYTAklUMQ4wDAYDVQQIDAVJdGFseTEQMA4GA1UEBwwHU2Fs
ZXJubzEUMBIGA1UECgwLYnVuY2gtbGludXgxFDASBgNVBAsMC0J1bmNoIExpbnV4
MRQwEgYDVQQDDAtXYWVsIEthcm1hbjEkMCIGCSqGSIb3DQEJARYVd2FlbC5rYXJt
YW5AZ21haWwuY29tMB4XDTIzMTEyMzEzMzcwNVoXDTIzMTIyMzEzMzcwNVowgZcx
CzAJBgNVBAYTAklUMQ4wDAYDVQQIDAVJdGFseTEQMA4GA1UEBwwHU2FsZXJubzEU
MBIGA1UECgwLYnVuY2gtbGludXgxFDASBgNVBAsMC0J1bmNoIExpbnV4MRQwEgYD
VQQDDAtXYWVsIEthcm1hbjEkMCIGCSqGSIb3DQEJARYVd2FlbC5rYXJtYW5AZ21h
aWwuY29tMIICIjANBgkqhkiG9w0BAQEFAAOCAg8AMIICCgKCAgEAlCXRDr+VM9oE
xV/8oQSnPj+1NKDrPOHjS3RmljX8s7lCVIRmFqHY+sy4CIgDH4n89lyYi5eDXFzk
DLRX6gFmLGJIGbu28Avh1XtrkbbYtW9Tw5zt9ZvBGH15w9V9dsvhkEpDDLr7AtQh
Q2N3+BcFlt4fJAR2tg5jZFPVLipOvZHz8ofrdJKUXb1pABqCjPUef90TrjpChua4
lwcqBexJvTGil6W/2TiUJJKZP9Gg5Yyjp2noiA+umFIjxy3fjK7UEiBHwC4UGdbr
b8mBfoPgB1UMXQyur6SJke7bYWPeajsoF5eUF89o9Apv2z1gDQsHrpMxAYxyt14U
CwyNcdc+fXYAYXMKKKP31ekD19lPtxJaCkyymeFDKIIb177j4qKZjvQVXVVEfarF
m+cnTBN6yFUxGnzLfzkgUUwyG9aiVBZmlJNXqwh9IJal43l51TS2q+umA13P9Bup
lUhlkTdZfkHhjigwK5oNbLuLoY4UfrtpDkbAb/TxCjVM9MGvV9BzwSvcK3JmQQ+h
tNIN0qL/o3m9BCW8HsBk3mnGU9Kq7LYpdAxqAxCZwsP7b+8bkeQL2yTZrYdNOtpC
CJl7llzb8NMhov0DWSZVaroQbbxS2WO0M+ix8jzhV2UKBbu210so1+SC6yThtPej
smbGUS7flFXWMF2NKakvFzkpUgZIGQ0CAwEAAaNTMFEwHQYDVR0OBBYEFG5gzGp5
lyG4Jxh8jQl24ffWo+JxMB8GA1UdIwQYMBaAFG5gzGp5lyG4Jxh8jQl24ffWo+Jx
MA8GA1UdEwEB/wQFMAMBAf8wDQYJKoZIhvcNAQELBQADggIBAAe8V0uZMAb6/Ry5
z3kSMDWixaGdyhxLZAqmULqP2pD52Ss9wEOsH6Y3kkUue2TMAU/pZIXimVqe1k3D
oRK/jhrHnAchgOPbTz8RSFPumQGIVfOHEaDUxx7RRUbmIp1vW6+zHBb15h5XBZgD
Pdfe4UhBBoo4GuWSAcjYhYjmyZ7nk3bNtsnNjm82MXqMcnQMlwy26rbmV2X0gjb5
LOLqPSYJhwbXoKQuO1K9egJUnpxqe250Z2Q5YvmqqoNmM4f4mS8pWfDXu9g0+NpB
kQKOxu8M9jtNvWhplsOjD1ipkWm9omBbA++LoHizOdZBRRr/aKip+NSPrcOtfAjV
pgd1IOGikxbFWLWvgi+jGuvZua8V87132nVh76Vl+lxQsmPxu30Hp49Bp9L/s9jb
IqJWmWGPT/wKbZCzZfrs1BIqF0PiOtcW1JfAD8o+/PFi56T7OxifeVh2nifNWt9k
qbKoMvdpM928PsK4EzV7xAMSMEV6726LkkYhsLNBaaANqhPQw7ZcR4syc6yeA8wN
BVyyvgTN1L9Zmf0tV61lan4HAATXa4GXp837k0N9EbfQKxks42+ZD0sntUVWurEt
GCFRXu3Fa7LpHqQ1F+5hUOpGOVPquQ8UxuQZHSMDe3zFXTzsW67Vb6ZV5IVDQjqa
i1XFQTPlaABi1asGsnH6FevO7VVe
-----END CERTIFICATE-----
