Certificate:
    Data:
        Version: 3 (0x2)
        Serial Number:
            09:34:f0:6d:f0:3e:c0:30:3b:d2:2a:2a:ce:63:d7:ee:3d:76:e4:44
        Signature Algorithm: sha256WithRSAEncryption
        Issuer: C = IT, ST = Italy, L = Salerno, O = bunch-linux, OU = Bunch Linux, CN = Wael Karman, emailAddress = wael.karman@gmail.com
        Validity
            Not Before: Nov 23 14:08:33 2023 GMT
            Not After : Dec 23 14:08:33 2023 GMT
        Subject: C = IT, ST = Italy, L = Salerno, O = bunch-linux, OU = Bunch Linux, CN = Wael Karman, emailAddress = wael.karman@gmail.com
        Subject Public Key Info:
            Public Key Algorithm: rsaEncryption
                Public-Key: (4096 bit)
                Modulus:
                    00:ed:66:bc:e2:57:ac:c4:17:24:7a:0f:5f:66:89:
                    32:e1:a3:79:81:33:07:9a:93:8a:3c:e1:a9:79:f8:
                    10:51:de:9d:99:9b:8b:ee:a1:e8:b7:4b:33:eb:b5:
                    cf:7b:13:6c:d7:76:a1:5f:27:40:9a:dd:4c:6d:60:
                    8d:ce:86:8d:0f:3f:81:cb:8d:f2:3e:75:12:34:bb:
                    e3:86:93:e8:8d:93:be:fe:55:9a:5f:9a:f5:23:0f:
                    c9:1e:69:ff:12:c1:02:ff:db:b6:58:31:d2:5a:e3:
                    c4:f3:f9:e3:3f:ab:d3:54:75:0b:bc:4e:df:99:dd:
                    c4:18:b8:12:52:15:70:6c:9d:4a:64:12:92:47:9f:
                    8b:6d:34:e0:9a:64:a2:65:ed:c4:35:43:54:22:a5:
                    26:f6:c5:68:09:aa:17:f5:4e:84:4f:a8:7e:3c:04:
                    f6:ff:19:c1:65:1e:ee:21:30:bc:74:68:4d:2e:50:
                    e3:0b:2e:55:50:23:7a:39:c8:83:86:88:c3:80:84:
                    d2:2c:82:3b:82:a3:08:94:8f:19:c1:da:20:b4:0d:
                    04:e4:af:20:c4:ef:75:4f:09:67:f2:ea:1b:ef:ac:
                    f3:d3:5a:3d:03:06:85:77:a9:b9:3c:9f:77:4b:ae:
                    54:ae:2e:c1:f5:99:a9:cd:ac:2a:f9:bf:85:03:d2:
                    ad:17:c5:66:b7:51:79:7e:95:25:b4:88:d3:e8:79:
                    43:47:fe:ab:46:05:4b:bb:0f:87:0e:56:bb:36:cd:
                    cb:bb:e0:df:40:6b:47:4f:e2:e6:50:d5:63:8f:fb:
                    10:a3:66:28:a8:e8:eb:50:09:35:a6:c6:b4:dd:cc:
                    94:2b:a1:bf:ce:a1:f8:c5:c0:ca:09:ae:82:a5:16:
                    b5:5d:49:67:01:1c:5b:34:fb:49:42:e8:9c:e3:56:
                    a0:b3:a0:30:96:3b:12:ef:70:e3:bb:04:e3:72:c8:
                    96:6d:5f:ef:a5:67:08:5a:0a:04:85:52:08:e2:f3:
                    80:38:e4:3a:c9:32:06:12:1b:fe:d0:22:2d:79:ab:
                    d9:0e:2a:48:e2:13:d6:8f:20:12:af:fa:f1:6d:35:
                    e4:19:51:3e:72:6e:d9:ef:04:1a:c2:b7:9b:e6:f0:
                    1e:3a:0f:a1:df:2e:5a:8c:22:33:ac:d9:be:18:01:
                    29:47:55:d2:7e:5f:b2:69:36:92:3a:92:55:2b:e6:
                    8d:08:42:32:a8:fc:1a:13:0e:39:a4:61:84:35:64:
                    a3:de:1a:2a:92:ca:f8:79:4a:36:94:33:d3:c3:3b:
                    07:13:8f:8d:30:78:c9:d5:84:63:7e:d2:ee:3e:97:
                    40:98:f4:d2:3b:5e:a4:25:fa:cb:59:57:5f:04:35:
                    8e:2a:a1
                Exponent: 65537 (0x10001)
        X509v3 extensions:
            X509v3 Subject Key Identifier: 
                D8:8E:F4:D9:5C:91:ED:90:29:0B:73:4A:8F:5A:05:13:26:8B:48:F7
            X509v3 Authority Key Identifier: 
                D8:8E:F4:D9:5C:91:ED:90:29:0B:73:4A:8F:5A:05:13:26:8B:48:F7
            X509v3 Basic Constraints: critical
                CA:TRUE
    Signature Algorithm: sha256WithRSAEncryption
    Signature Value:
        a6:8a:1b:a7:f3:cb:c1:ea:ec:e0:9b:84:8a:a4:44:47:07:ef:
        e2:13:26:e9:4c:0b:8b:1a:91:8b:96:f9:b8:a4:58:34:d5:06:
        17:c4:b1:fb:27:be:f9:ac:8a:fb:65:de:0e:f0:98:05:2d:f4:
        a3:a8:f0:4f:a8:78:71:4d:d4:c6:f4:46:e6:d9:e4:eb:88:5f:
        15:19:32:93:f1:0d:43:e2:5b:0e:c4:30:c8:c4:27:1c:57:6f:
        1b:86:7b:e4:40:85:f6:de:70:98:78:03:1b:78:cc:9d:a0:14:
        e3:42:ae:bb:28:7d:b9:3f:2e:2d:19:8c:66:5f:07:78:77:cc:
        c3:07:47:c6:c8:52:f5:fd:a2:d9:c1:66:98:6d:ef:b4:c7:08:
        27:f5:30:43:8a:b1:99:5d:86:40:59:1d:d3:c1:c6:b9:2e:24:
        25:80:95:0f:4e:35:72:59:71:94:d1:3d:7a:0f:44:43:ed:18:
        6e:42:53:aa:76:eb:0f:50:7b:a9:b0:9c:64:95:ee:0f:6c:5c:
        77:b1:8d:08:d0:7c:2b:57:a8:53:6a:64:f6:4d:df:37:48:fb:
        3e:62:6b:11:19:4f:3c:74:ce:70:33:7b:c8:7f:fa:98:de:b3:
        f6:b7:e4:c7:45:68:ab:97:47:da:a4:d8:15:40:93:d2:82:4f:
        cb:28:bf:c5:9f:af:e8:c4:be:2f:b1:af:21:f5:eb:82:24:17:
        5f:6b:f4:ff:87:8a:4d:90:f3:dd:a0:fb:b4:eb:89:12:d4:00:
        43:57:a2:ca:13:46:0e:99:54:3d:76:7b:5c:36:35:7e:8f:a3:
        16:c4:07:23:4e:d0:b5:d3:8a:3e:02:08:83:11:9b:00:df:2a:
        1d:6a:56:0f:af:26:6d:ef:28:e4:25:e8:37:01:f9:1a:99:1b:
        6b:42:ba:88:e9:0f:bd:35:8e:da:88:86:49:4e:a4:07:16:04:
        75:e6:bd:82:62:9b:a2:59:d8:1d:f3:6f:26:d7:3e:7c:6c:c9:
        b6:44:59:ec:3b:29:c4:3f:24:8b:a2:fc:ac:f2:27:49:ca:58:
        db:b1:85:a8:71:b8:7a:09:90:c2:39:6d:99:00:24:ed:d3:37:
        99:8f:fa:cb:e0:68:3a:81:c3:b4:c7:bc:52:aa:45:2c:67:39:
        e3:a6:c0:59:78:d5:cb:0b:93:6c:04:d1:63:3e:20:0d:a2:23:
        2b:de:6f:3d:8f:2e:b6:70:93:2c:cd:98:55:c0:df:95:b2:44:
        9b:9b:31:d2:c0:eb:ee:67:17:75:b5:3e:d9:99:83:91:d0:b0:
        70:ef:fc:3a:53:44:75:62:76:e2:ae:75:42:84:fa:4b:f2:88:
        8f:0d:10:0d:e4:58:57:bd
-----BEGIN CERTIFICATE-----
MIIGETCCA/mgAwIBAgIUCTTwbfA+wDA70ioqzmPX7j125EQwDQYJKoZIhvcNAQEL
BQAwgZcxCzAJBgNVBAYTAklUMQ4wDAYDVQQIDAVJdGFseTEQMA4GA1UEBwwHU2Fs
ZXJubzEUMBIGA1UECgwLYnVuY2gtbGludXgxFDASBgNVBAsMC0J1bmNoIExpbnV4
MRQwEgYDVQQDDAtXYWVsIEthcm1hbjEkMCIGCSqGSIb3DQEJARYVd2FlbC5rYXJt
YW5AZ21haWwuY29tMB4XDTIzMTEyMzE0MDgzM1oXDTIzMTIyMzE0MDgzM1owgZcx
CzAJBgNVBAYTAklUMQ4wDAYDVQQIDAVJdGFseTEQMA4GA1UEBwwHU2FsZXJubzEU
MBIGA1UECgwLYnVuY2gtbGludXgxFDASBgNVBAsMC0J1bmNoIExpbnV4MRQwEgYD
VQQDDAtXYWVsIEthcm1hbjEkMCIGCSqGSIb3DQEJARYVd2FlbC5rYXJtYW5AZ21h
aWwuY29tMIICIjANBgkqhkiG9w0BAQEFAAOCAg8AMIICCgKCAgEA7Wa84lesxBck
eg9fZoky4aN5gTMHmpOKPOGpefgQUd6dmZuL7qHot0sz67XPexNs13ahXydAmt1M
bWCNzoaNDz+By43yPnUSNLvjhpPojZO+/lWaX5r1Iw/JHmn/EsEC/9u2WDHSWuPE
8/njP6vTVHULvE7fmd3EGLgSUhVwbJ1KZBKSR5+LbTTgmmSiZe3ENUNUIqUm9sVo
CaoX9U6ET6h+PAT2/xnBZR7uITC8dGhNLlDjCy5VUCN6OciDhojDgITSLII7gqMI
lI8ZwdogtA0E5K8gxO91Twln8uob76zz01o9AwaFd6m5PJ93S65Uri7B9Zmpzawq
+b+FA9KtF8Vmt1F5fpUltIjT6HlDR/6rRgVLuw+HDla7Ns3Lu+DfQGtHT+LmUNVj
j/sQo2YoqOjrUAk1psa03cyUK6G/zqH4xcDKCa6CpRa1XUlnARxbNPtJQuic41ag
s6AwljsS73DjuwTjcsiWbV/vpWcIWgoEhVII4vOAOOQ6yTIGEhv+0CIteavZDipI
4hPWjyASr/rxbTXkGVE+cm7Z7wQawreb5vAeOg+h3y5ajCIzrNm+GAEpR1XSfl+y
aTaSOpJVK+aNCEIyqPwaEw45pGGENWSj3hoqksr4eUo2lDPTwzsHE4+NMHjJ1YRj
ftLuPpdAmPTSO16kJfrLWVdfBDWOKqECAwEAAaNTMFEwHQYDVR0OBBYEFNiO9Nlc
ke2QKQtzSo9aBRMmi0j3MB8GA1UdIwQYMBaAFNiO9Nlcke2QKQtzSo9aBRMmi0j3
MA8GA1UdEwEB/wQFMAMBAf8wDQYJKoZIhvcNAQELBQADggIBAKaKG6fzy8Hq7OCb
hIqkREcH7+ITJulMC4sakYuW+bikWDTVBhfEsfsnvvmsivtl3g7wmAUt9KOo8E+o
eHFN1Mb0RubZ5OuIXxUZMpPxDUPiWw7EMMjEJxxXbxuGe+RAhfbecJh4Axt4zJ2g
FONCrrsofbk/Li0ZjGZfB3h3zMMHR8bIUvX9otnBZpht77THCCf1MEOKsZldhkBZ
HdPBxrkuJCWAlQ9ONXJZcZTRPXoPREPtGG5CU6p26w9Qe6mwnGSV7g9sXHexjQjQ
fCtXqFNqZPZN3zdI+z5iaxEZTzx0znAze8h/+pjes/a35MdFaKuXR9qk2BVAk9KC
T8sov8Wfr+jEvi+xryH164IkF19r9P+Hik2Q892g+7TriRLUAENXosoTRg6ZVD12
e1w2NX6PoxbEByNO0LXTij4CCIMRmwDfKh1qVg+vJm3vKOQl6DcB+RqZG2tCuojp
D701jtqIhklOpAcWBHXmvYJim6JZ2B3zbybXPnxsybZEWew7KcQ/JIui/KzyJ0nK
WNuxhahxuHoJkMI5bZkAJO3TN5mP+svgaDqBw7THvFKqRSxnOeOmwFl41csLk2wE
0WM+IA2iIyvebz2PLrZwkyzNmFXA35WyRJubMdLA6+5nF3W1PtmZg5HQsHDv/DpT
RHViduKudUKE+kvyiI8NEA3kWFe9
-----END CERTIFICATE-----
